; Function Attrs: mustprogress nounwind uwtable
define hidden void @_ZN15G1CollectedHeap27make_pending_list_reachableEv(ptr noundef nonnull align 8 dereferenceable(1488) %0) local_unnamed_addr #0 align 2 {
  %2 = getelementptr inbounds i8, ptr %0, i64 970
  %3 = load volatile i8, ptr %2, align 2
  %4 = trunc i8 %3 to i1
  br i1 %4, label %5, label %11

5:                                                ; preds = %1
  %6 = tail call noundef ptr @_ZN8Universe22reference_pending_listEv() #23
  %.not = icmp eq ptr %6, null
  br i1 %.not, label %11, label %7

7:                                                ; preds = %5
  %8 = getelementptr inbounds i8, ptr %0, i64 1320
  %9 = load ptr, ptr %8, align 8
  %10 = tail call noundef zeroext i1 @_ZN16G1ConcurrentMark14mark_in_bitmapEjP7oopDesc(ptr noundef nonnull align 8 dereferenceable(1849) %9, i32 noundef 0, ptr noundef nonnull %6)
  br label %11

11:                                               ; preds = %5, %7, %1
  ret void
}